target datalayout = "e-m:e-p270:32:32-p271:32:32-p272:64:64-i64:64-i128:128-f80:128-n8:16:32:64-S128"
target triple = "x86_64-pc-linux-gnu"

@.str.159 = private unnamed_addr constant [16 x i8] c"UNIX privileges\00", align 1
@hf_afp_unix_privs_uid = internal global i32 0, align 4
@hf_afp_unix_privs_gid = internal global i32 0, align 4
@hf_afp_unix_privs_permissions = internal global i32 0, align 4
@hf_afp_unix_privs_ua_permissions = internal global i32 0, align 4
@ett_afp_unix_privs = internal global i32 0, align 4
@ett_afp_dir_ar = internal global i32 0, align 4

; Function Attrs: null_pointer_is_valid sspstrong uwtable
define internal void @decode_access_rights(ptr noundef %0, ptr noundef %1, i32 noundef %2, i32 noundef %3) #1 {
  %5 = alloca ptr, align 8
  %6 = alloca ptr, align 8
  %7 = alloca i32, align 4
  %8 = alloca i32, align 4
  store ptr %0, ptr %5, align 8
  store ptr %1, ptr %6, align 8
  store i32 %2, ptr %7, align 4
  store i32 %3, ptr %8, align 4
  %9 = load ptr, ptr %5, align 8
  %10 = load ptr, ptr %6, align 8
  %11 = load i32, ptr %8, align 4
  %12 = load i32, ptr %7, align 4
  %13 = load i32, ptr @ett_afp_dir_ar, align 4
  %14 = call ptr @proto_tree_add_bitmask(ptr noundef %9, ptr noundef %10, i32 noundef %11, i32 noundef %12, i32 noundef %13, ptr noundef @decode_access_rights.rights, i32 noundef 0)
  ret void
}

; Function Attrs: null_pointer_is_valid sspstrong uwtable
define internal void @decode_unix_privs(ptr noundef %0, ptr noundef %1, i32 noundef %2) #1 {
  %4 = alloca ptr, align 8
  %5 = alloca ptr, align 8
  %6 = alloca i32, align 4
  %7 = alloca ptr, align 8
  store ptr %0, ptr %4, align 8
  store ptr %1, ptr %5, align 8
  store i32 %2, ptr %6, align 4
  call void @llvm.lifetime.start.p0(i64 8, ptr %7) #8
  %8 = load ptr, ptr %4, align 8
  %9 = icmp ne ptr %8, null
  br i1 %9, label %10, label %38

10:                                               ; preds = %3
  %11 = load ptr, ptr %4, align 8
  %12 = load ptr, ptr %5, align 8
  %13 = load i32, ptr %6, align 4
  %14 = load i32, ptr @ett_afp_unix_privs, align 4
  %15 = call ptr @proto_tree_add_subtree(ptr noundef %11, ptr noundef %12, i32 noundef %13, i32 noundef 16, i32 noundef %14, ptr noundef null, ptr noundef @.str.159)
  store ptr %15, ptr %7, align 8
  %16 = load ptr, ptr %7, align 8
  %17 = load i32, ptr @hf_afp_unix_privs_uid, align 4
  %18 = load ptr, ptr %5, align 8
  %19 = load i32, ptr %6, align 4
  %20 = call ptr @proto_tree_add_item(ptr noundef %16, i32 noundef %17, ptr noundef %18, i32 noundef %19, i32 noundef 4, i32 noundef 0)
  %21 = load ptr, ptr %7, align 8
  %22 = load i32, ptr @hf_afp_unix_privs_gid, align 4
  %23 = load ptr, ptr %5, align 8
  %24 = load i32, ptr %6, align 4
  %25 = add i32 %24, 4
  %26 = call ptr @proto_tree_add_item(ptr noundef %21, i32 noundef %22, ptr noundef %23, i32 noundef %25, i32 noundef 4, i32 noundef 0)
  %27 = load ptr, ptr %7, align 8
  %28 = load i32, ptr @hf_afp_unix_privs_permissions, align 4
  %29 = load ptr, ptr %5, align 8
  %30 = load i32, ptr %6, align 4
  %31 = add i32 %30, 8
  %32 = call ptr @proto_tree_add_item(ptr noundef %27, i32 noundef %28, ptr noundef %29, i32 noundef %31, i32 noundef 4, i32 noundef 0)
  %33 = load ptr, ptr %7, align 8
  %34 = load ptr, ptr %5, align 8
  %35 = load i32, ptr @hf_afp_unix_privs_ua_permissions, align 4
  %36 = load i32, ptr %6, align 4
  %37 = add i32 %36, 12
  call void @decode_access_rights(ptr noundef %33, ptr noundef %34, i32 noundef %35, i32 noundef %37)
  br label %38

38:                                               ; preds = %10, %3
  call void @llvm.lifetime.end.p0(i64 8, ptr %7) #8
  ret void
}