; Function Attrs: null_pointer_is_valid sspstrong uwtable
define internal fastcc void @decode_unix_privs(ptr noundef %0, ptr noundef %1, i32 noundef %2) unnamed_addr #1 {
  %.not = icmp eq ptr %0, null
  br i1 %.not, label %19, label %4

4:                                                ; preds = %3
  %5 = load i32, ptr @ett_afp_unix_privs, align 4
  %6 = tail call ptr @proto_tree_add_subtree(ptr noundef nonnull %0, ptr noundef %1, i32 noundef %2, i32 noundef 16, i32 noundef %5, ptr noundef null, ptr noundef nonnull @.str.159)
  %7 = load i32, ptr @hf_afp_unix_privs_uid, align 4
  %8 = tail call ptr @proto_tree_add_item(ptr noundef %6, i32 noundef %7, ptr noundef %1, i32 noundef %2, i32 noundef 4, i32 noundef 0)
  %9 = load i32, ptr @hf_afp_unix_privs_gid, align 4
  %10 = add i32 %2, 4
  %11 = tail call ptr @proto_tree_add_item(ptr noundef %6, i32 noundef %9, ptr noundef %1, i32 noundef %10, i32 noundef 4, i32 noundef 0)
  %12 = load i32, ptr @hf_afp_unix_privs_permissions, align 4
  %13 = add i32 %2, 8
  %14 = tail call ptr @proto_tree_add_item(ptr noundef %6, i32 noundef %12, ptr noundef %1, i32 noundef %13, i32 noundef 4, i32 noundef 0)
  %15 = load i32, ptr @hf_afp_unix_privs_ua_permissions, align 4
  %16 = add i32 %2, 12
  %17 = load i32, ptr @ett_afp_dir_ar, align 4
  %18 = tail call ptr @proto_tree_add_bitmask(ptr noundef %6, ptr noundef %1, i32 noundef %16, i32 noundef %15, i32 noundef %17, ptr noundef nonnull @decode_access_rights.rights, i32 noundef 0)
  br label %19

19:                                               ; preds = %4, %3
  ret void
}